; Function Attrs: mustprogress nofree norecurse nosync nounwind willreturn memory(read, inaccessiblemem: none) uwtable
define { ptr, i64 } @_ZNK32pxrInternal_v0_24__pxrReserved__10PcpNodeRef13GetParentNodeEv(ptr noundef nonnull readonly align 8 captures(none) dereferenceable(16) %0) local_unnamed_addr #3 align 2 {
  %2 = load ptr, ptr %0, align 8
  %3 = getelementptr inbounds nuw i8, ptr %0, i64 8
  %4 = load i64, ptr %3, align 8
  %5 = getelementptr inbounds nuw i8, ptr %2, i64 16
  %6 = load ptr, ptr %5, align 8
  %7 = load ptr, ptr %6, align 8
  %8 = getelementptr inbounds %"struct.pxrInternal_v0_24__pxrReserved__::PcpPrimIndex_Graph::_Node", ptr %7, i64 %4, i32 3
  %9 = load i16, ptr %8, align 8
  %10 = icmp eq i16 %9, -1
  %11 = zext i16 %9 to i64
  %spec.select = select i1 %10, i64 -1, i64 %11
  %spec.select2 = select i1 %10, ptr null, ptr %2
  %.fca.0.insert = insertvalue { ptr, i64 } poison, ptr %spec.select2, 0
  %.fca.1.insert = insertvalue { ptr, i64 } %.fca.0.insert, i64 %spec.select, 1
  ret { ptr, i64 } %.fca.1.insert
}